; Function Attrs: mustprogress nounwind uwtable
define hidden noundef nonnull align 8 dereferenceable(73) ptr @_ZN4LIEF15vector_iostream13write_sleb128El(ptr noundef nonnull returned align 8 dereferenceable(73) %0, i64 noundef %1) local_unnamed_addr #2 align 2 {
  %3 = alloca i8, align 1
  %4 = alloca i8, align 1
  %5 = icmp slt i64 %1, 0
  %6 = getelementptr inbounds nuw i8, ptr %0, i64 24
  %7 = getelementptr inbounds nuw i8, ptr %0, i64 64
  %8 = getelementptr inbounds nuw i8, ptr %0, i64 72
  %9 = trunc i64 %1 to i8
  br i1 %5, label %.split.us, label %.split

.split.us:                                        ; preds = %2
  %10 = ashr i64 %1, 7
  %11 = icmp ne i64 %10, -1
  %12 = and i64 %1, 64
  %13 = icmp eq i64 %12, 0
  %14 = or i1 %11, %13
  %.sroa.0.0.copyload.i.i9.pre22 = load i64, ptr %6, align 8, !tbaa !29
  br i1 %14, label %.lr.ph16, label %.critedge

.lr.ph16:                                         ; preds = %.split.us, %_ZN4LIEF15vector_iostream5writeIhvEERS0_RKT_.exit.us
  %.sroa.0.0.copyload.i.i.us = phi i64 [ %41, %_ZN4LIEF15vector_iostream5writeIhvEERS0_RKT_.exit.us ], [ %.sroa.0.0.copyload.i.i9.pre22, %.split.us ]
  %15 = phi i64 [ %43, %_ZN4LIEF15vector_iostream5writeIhvEERS0_RKT_.exit.us ], [ %10, %.split.us ]
  %16 = phi i8 [ %42, %_ZN4LIEF15vector_iostream5writeIhvEERS0_RKT_.exit.us ], [ %9, %.split.us ]
  %17 = or i8 %16, -128
  %18 = load ptr, ptr %7, align 8, !tbaa !6
  %19 = getelementptr inbounds nuw i8, ptr %18, i64 8
  %20 = load ptr, ptr %19, align 8, !tbaa !27
  %21 = load ptr, ptr %18, align 8, !tbaa !28
  %22 = ptrtoint ptr %20 to i64
  %23 = ptrtoint ptr %21 to i64
  %24 = sub i64 %22, %23
  %25 = add i64 %.sroa.0.0.copyload.i.i.us, 1
  %26 = icmp ult i64 %24, %25
  br i1 %26, label %27, label %28

27:                                               ; preds = %.lr.ph16
  call void @_ZNSt6vectorIhSaIhEE6resizeEm(ptr noundef nonnull align 8 dereferenceable(24) %18, i64 noundef %25)
  br label %28

28:                                               ; preds = %27, %.lr.ph16
  %29 = load i8, ptr %8, align 8, !tbaa !33, !range !34, !noundef !35
  %30 = trunc nuw i8 %29 to i1
  br i1 %30, label %35, label %31

31:                                               ; preds = %28
  %32 = load ptr, ptr %7, align 8, !tbaa !6
  %33 = load ptr, ptr %32, align 8, !tbaa !28
  %34 = getelementptr inbounds nuw i8, ptr %33, i64 %.sroa.0.0.copyload.i.i.us
  store i8 %17, ptr %34, align 1
  br label %_ZN4LIEF15vector_iostream5writeIhvEERS0_RKT_.exit.us

35:                                               ; preds = %28
  call void @llvm.lifetime.start.p0(i64 1, ptr nonnull %4) #15
  store i8 %17, ptr %4, align 1, !tbaa !30
  call void @_ZN4LIEF11swap_endianIhEEvPT_(ptr noundef nonnull %4) #15
  %36 = load ptr, ptr %7, align 8, !tbaa !6
  %37 = load ptr, ptr %36, align 8, !tbaa !28
  %38 = getelementptr inbounds nuw i8, ptr %37, i64 %.sroa.0.0.copyload.i.i.us
  %39 = load i8, ptr %4, align 1
  store i8 %39, ptr %38, align 1
  call void @llvm.lifetime.end.p0(i64 1, ptr nonnull %4) #15
  br label %_ZN4LIEF15vector_iostream5writeIhvEERS0_RKT_.exit.us

_ZN4LIEF15vector_iostream5writeIhvEERS0_RKT_.exit.us: ; preds = %35, %31
  %40 = load i64, ptr %6, align 8, !tbaa !31
  %41 = add nsw i64 %40, 1
  store i64 %41, ptr %6, align 8, !tbaa !31
  %42 = trunc i64 %15 to i8
  %43 = ashr i64 %15, 7
  %44 = icmp ne i64 %43, -1
  %45 = and i64 %15, 64
  %46 = icmp eq i64 %45, 0
  %47 = or i1 %44, %46
  br i1 %47, label %.lr.ph16, label %.critedge, !llvm.loop !37

.split:                                           ; preds = %2
  %48 = icmp samesign ugt i64 %1, 63
  %.sroa.0.0.copyload.i.i9.pre = load i64, ptr %6, align 8, !tbaa !29
  br i1 %48, label %.lr.ph, label %.critedge

.lr.ph:                                           ; preds = %.split, %_ZN4LIEF15vector_iostream5writeIhvEERS0_RKT_.exit
  %.sroa.0.0.copyload.i.i = phi i64 [ %75, %_ZN4LIEF15vector_iostream5writeIhvEERS0_RKT_.exit ], [ %.sroa.0.0.copyload.i.i9.pre, %.split ]
  %.in = phi i64 [ %50, %_ZN4LIEF15vector_iostream5writeIhvEERS0_RKT_.exit ], [ %1, %.split ]
  %49 = phi i8 [ %76, %_ZN4LIEF15vector_iostream5writeIhvEERS0_RKT_.exit ], [ %9, %.split ]
  %50 = lshr i64 %.in, 7
  %51 = or i8 %49, -128
  %52 = load ptr, ptr %7, align 8, !tbaa !6
  %53 = getelementptr inbounds nuw i8, ptr %52, i64 8
  %54 = load ptr, ptr %53, align 8, !tbaa !27
  %55 = load ptr, ptr %52, align 8, !tbaa !28
  %56 = ptrtoint ptr %54 to i64
  %57 = ptrtoint ptr %55 to i64
  %58 = sub i64 %56, %57
  %59 = add i64 %.sroa.0.0.copyload.i.i, 1
  %60 = icmp ult i64 %58, %59
  br i1 %60, label %61, label %62

61:                                               ; preds = %.lr.ph
  call void @_ZNSt6vectorIhSaIhEE6resizeEm(ptr noundef nonnull align 8 dereferenceable(24) %52, i64 noundef %59)
  br label %62

62:                                               ; preds = %61, %.lr.ph
  %63 = load i8, ptr %8, align 8, !tbaa !33, !range !34, !noundef !35
  %64 = trunc nuw i8 %63 to i1
  br i1 %64, label %65, label %70

65:                                               ; preds = %62
  call void @llvm.lifetime.start.p0(i64 1, ptr nonnull %4) #15
  store i8 %51, ptr %4, align 1, !tbaa !30
  call void @_ZN4LIEF11swap_endianIhEEvPT_(ptr noundef nonnull %4) #15
  %66 = load ptr, ptr %7, align 8, !tbaa !6
  %67 = load ptr, ptr %66, align 8, !tbaa !28
  %68 = getelementptr inbounds nuw i8, ptr %67, i64 %.sroa.0.0.copyload.i.i
  %69 = load i8, ptr %4, align 1
  store i8 %69, ptr %68, align 1
  call void @llvm.lifetime.end.p0(i64 1, ptr nonnull %4) #15
  br label %_ZN4LIEF15vector_iostream5writeIhvEERS0_RKT_.exit

70:                                               ; preds = %62
  %71 = load ptr, ptr %7, align 8, !tbaa !6
  %72 = load ptr, ptr %71, align 8, !tbaa !28
  %73 = getelementptr inbounds nuw i8, ptr %72, i64 %.sroa.0.0.copyload.i.i
  store i8 %51, ptr %73, align 1
  br label %_ZN4LIEF15vector_iostream5writeIhvEERS0_RKT_.exit

_ZN4LIEF15vector_iostream5writeIhvEERS0_RKT_.exit: ; preds = %65, %70
  %74 = load i64, ptr %6, align 8, !tbaa !31
  %75 = add nsw i64 %74, 1
  store i64 %75, ptr %6, align 8, !tbaa !31
  %76 = trunc i64 %50 to i8
  %77 = icmp samesign ugt i64 %.in, 8191
  br i1 %77, label %.lr.ph, label %.critedge, !llvm.loop !37

.critedge:                                        ; preds = %_ZN4LIEF15vector_iostream5writeIhvEERS0_RKT_.exit, %_ZN4LIEF15vector_iostream5writeIhvEERS0_RKT_.exit.us, %.split, %.split.us
  %.sroa.0.0.copyload.i.i9 = phi i64 [ %.sroa.0.0.copyload.i.i9.pre22, %.split.us ], [ %.sroa.0.0.copyload.i.i9.pre, %.split ], [ %41, %_ZN4LIEF15vector_iostream5writeIhvEERS0_RKT_.exit.us ], [ %75, %_ZN4LIEF15vector_iostream5writeIhvEERS0_RKT_.exit ]
  %.us-phi = phi i8 [ %9, %.split.us ], [ %9, %.split ], [ %42, %_ZN4LIEF15vector_iostream5writeIhvEERS0_RKT_.exit.us ], [ %76, %_ZN4LIEF15vector_iostream5writeIhvEERS0_RKT_.exit ]
  %78 = and i8 %.us-phi, 127
  %79 = load ptr, ptr %7, align 8, !tbaa !6
  %80 = getelementptr inbounds nuw i8, ptr %79, i64 8
  %81 = load ptr, ptr %80, align 8, !tbaa !27
  %82 = load ptr, ptr %79, align 8, !tbaa !28
  %83 = ptrtoint ptr %81 to i64
  %84 = ptrtoint ptr %82 to i64
  %85 = sub i64 %83, %84
  %86 = add i64 %.sroa.0.0.copyload.i.i9, 1
  %87 = icmp ult i64 %85, %86
  br i1 %87, label %88, label %89

88:                                               ; preds = %.critedge
  call void @_ZNSt6vectorIhSaIhEE6resizeEm(ptr noundef nonnull align 8 dereferenceable(24) %79, i64 noundef %86)
  br label %89

89:                                               ; preds = %88, %.critedge
  %90 = load i8, ptr %8, align 8, !tbaa !33, !range !34, !noundef !35
  %91 = trunc nuw i8 %90 to i1
  br i1 %91, label %92, label %97

92:                                               ; preds = %89
  call void @llvm.lifetime.start.p0(i64 1, ptr nonnull %3) #15
  store i8 %78, ptr %3, align 1, !tbaa !30
  call void @_ZN4LIEF11swap_endianIhEEvPT_(ptr noundef nonnull %3) #15
  %93 = load ptr, ptr %7, align 8, !tbaa !6
  %94 = load ptr, ptr %93, align 8, !tbaa !28
  %95 = getelementptr inbounds nuw i8, ptr %94, i64 %.sroa.0.0.copyload.i.i9
  %96 = load i8, ptr %3, align 1
  store i8 %96, ptr %95, align 1
  call void @llvm.lifetime.end.p0(i64 1, ptr nonnull %3) #15
  br label %_ZN4LIEF15vector_iostream5writeIhvEERS0_RKT_.exit10

97:                                               ; preds = %89
  %98 = load ptr, ptr %7, align 8, !tbaa !6
  %99 = load ptr, ptr %98, align 8, !tbaa !28
  %100 = getelementptr inbounds nuw i8, ptr %99, i64 %.sroa.0.0.copyload.i.i9
  store i8 %78, ptr %100, align 1
  br label %_ZN4LIEF15vector_iostream5writeIhvEERS0_RKT_.exit10

_ZN4LIEF15vector_iostream5writeIhvEERS0_RKT_.exit10: ; preds = %92, %97
  %101 = load i64, ptr %6, align 8, !tbaa !31
  %102 = add nsw i64 %101, 1
  store i64 %102, ptr %6, align 8, !tbaa !31
  ret ptr %0
}